target datalayout = "e-m:e-p270:32:32-p271:32:32-p272:64:64-i64:64-i128:128-f80:128-n8:16:32:64-S128"
target triple = "x86_64-pc-linux-gnu"

@cuddRand = internal global i64 0, align 8
@cuddRand2 = internal global i64 0, align 8
@shuffleSelect = internal global i64 0, align 8
@shuffleTable = internal global [64 x i64] zeroinitializer, align 16

; Function Attrs: nounwind uwtable
define void @Cudd_Srandom(i64 noundef %0) #0 {
  %2 = alloca i64, align 8
  %3 = alloca i32, align 4
  %4 = alloca i64, align 8
  store i64 %0, ptr %2, align 8
  %5 = load i64, ptr %2, align 8
  %6 = icmp slt i64 %5, 0
  br i1 %6, label %7, label %10

7:                                                ; preds = %1
  %8 = load i64, ptr %2, align 8
  %9 = sub nsw i64 0, %8
  store i64 %9, ptr @cuddRand, align 8
  br label %17

10:                                               ; preds = %1
  %11 = load i64, ptr %2, align 8
  %12 = icmp eq i64 %11, 0
  br i1 %12, label %13, label %14

13:                                               ; preds = %10
  store i64 1, ptr @cuddRand, align 8
  br label %16

14:                                               ; preds = %10
  %15 = load i64, ptr %2, align 8
  store i64 %15, ptr @cuddRand, align 8
  br label %16

16:                                               ; preds = %14, %13
  br label %17

17:                                               ; preds = %16, %7
  %18 = load i64, ptr @cuddRand, align 8
  store i64 %18, ptr @cuddRand2, align 8
  store i32 0, ptr %3, align 4
  br label %19

19:                                               ; preds = %45, %17
  %20 = load i32, ptr %3, align 4
  %21 = icmp slt i32 %20, 75
  br i1 %21, label %22, label %48

22:                                               ; preds = %19
  %23 = load i64, ptr @cuddRand, align 8
  %24 = sdiv i64 %23, 53668
  store i64 %24, ptr %4, align 8
  %25 = load i64, ptr @cuddRand, align 8
  %26 = load i64, ptr %4, align 8
  %27 = mul nsw i64 %26, 53668
  %28 = sub nsw i64 %25, %27
  %29 = mul nsw i64 40014, %28
  %30 = load i64, ptr %4, align 8
  %31 = mul nsw i64 %30, 12211
  %32 = sub nsw i64 %29, %31
  store i64 %32, ptr @cuddRand, align 8
  %33 = load i64, ptr @cuddRand, align 8
  %34 = icmp slt i64 %33, 0
  %35 = zext i1 %34 to i32
  %36 = mul nsw i32 %35, 2147483563
  %37 = sext i32 %36 to i64
  %38 = load i64, ptr @cuddRand, align 8
  %39 = add nsw i64 %38, %37
  store i64 %39, ptr @cuddRand, align 8
  %40 = load i64, ptr @cuddRand, align 8
  %41 = load i32, ptr %3, align 4
  %42 = srem i32 %41, 64
  %43 = sext i32 %42 to i64
  %44 = getelementptr inbounds [64 x i64], ptr @shuffleTable, i64 0, i64 %43
  store i64 %40, ptr %44, align 8
  br label %45

45:                                               ; preds = %22
  %46 = load i32, ptr %3, align 4
  %47 = add nsw i32 %46, 1
  store i32 %47, ptr %3, align 4
  br label %19, !llvm.loop !78

48:                                               ; preds = %19
  %49 = getelementptr inbounds [64 x i64], ptr @shuffleTable, i64 0, i64 1
  %50 = load i64, ptr %49, align 8
  store i64 %50, ptr @shuffleSelect, align 8
  ret void
}