; Function Attrs: nofree norecurse nosync nounwind memory(readwrite, argmem: none, inaccessiblemem: none) uwtable
define void @Cudd_Srandom(i64 noundef %0) local_unnamed_addr #15 {
  %2 = icmp slt i64 %0, 0
  %3 = sub nsw i64 0, %0
  %. = tail call i64 @llvm.umax.i64(i64 %0, i64 1)
  %4 = select i1 %2, i64 %3, i64 %.
  store i64 %4, ptr @cuddRand2, align 8
  br label %5

5:                                                ; preds = %1, %5
  %.011 = phi i32 [ 0, %1 ], [ %16, %5 ]
  %6 = phi i64 [ %4, %1 ], [ %12, %5 ]
  %7 = sdiv i64 %6, 53668
  %.neg = mul nsw i64 %7, -53668
  %8 = add i64 %.neg, %6
  %9 = mul nsw i64 %8, 40014
  %.neg10 = mul nsw i64 %7, -12211
  %10 = add i64 %9, %.neg10
  %isneg = icmp slt i64 %10, 0
  %11 = select i1 %isneg, i64 2147483563, i64 0
  %12 = add nsw i64 %11, %10
  %13 = and i32 %.011, 63
  %14 = zext nneg i32 %13 to i64
  %15 = getelementptr inbounds nuw [64 x i64], ptr @shuffleTable, i64 0, i64 %14
  store i64 %12, ptr %15, align 8
  %16 = add nuw nsw i32 %.011, 1
  %exitcond.not = icmp eq i32 %16, 75
  br i1 %exitcond.not, label %17, label %5, !llvm.loop !28

17:                                               ; preds = %5
  store i64 %12, ptr @cuddRand, align 8
  %18 = load i64, ptr getelementptr inbounds nuw (i8, ptr @shuffleTable, i64 8), align 8
  store i64 %18, ptr @shuffleSelect, align 8
  ret void
}